ARM GAS  C:\Users\adam\AppData\Local\Temp\cczPgtwE.s 			page 1


   1              		.syntax unified
   2              		.cpu cortex-m3
   3              		.fpu softvfp
   4              		.eabi_attribute 20, 1
   5              		.eabi_attribute 21, 1
   6              		.eabi_attribute 23, 3
   7              		.eabi_attribute 24, 1
   8              		.eabi_attribute 25, 1
   9              		.eabi_attribute 26, 1
  10              		.eabi_attribute 30, 6
  11              		.eabi_attribute 34, 1
  12              		.eabi_attribute 18, 4
  13              		.thumb
  14              		.file	"main.c"
  15              		.text
  16              	.Ltext0:
  17              		.cfi_sections	.debug_frame
  18              		.section	.text.main,"ax",%progbits
  19              		.align	2
  20              		.global	main
  21              		.thumb
  22              		.thumb_func
  23              		.type	main, %function
  24              	main:
  25              	.LFB56:
  26              		.file 1 ".\\main.c"
   1:.\main.c      **** /* ========================================
   2:.\main.c      ****  *
   3:.\main.c      ****  * Copyright YOUR COMPANY, THE YEAR
   4:.\main.c      ****  * All Rights Reserved
   5:.\main.c      ****  * UNPUBLISHED, LICENSED SOFTWARE.
   6:.\main.c      ****  *
   7:.\main.c      ****  * CONFIDENTIAL AND PROPRIETARY INFORMATION
   8:.\main.c      ****  * WHICH IS THE PROPERTY OF your company.
   9:.\main.c      ****  *
  10:.\main.c      ****  * ========================================
  11:.\main.c      **** */
  12:.\main.c      **** #include <project.h>
  13:.\main.c      **** #include <power_on.h>
  14:.\main.c      **** 
  15:.\main.c      **** int main()
  16:.\main.c      **** {
  27              		.loc 1 16 0
  28              		.cfi_startproc
  29              		@ args = 0, pretend = 0, frame = 8
  30              		@ frame_needed = 1, uses_anonymous_args = 0
  31 0000 80B5     		push	{r7, lr}
  32              	.LCFI0:
  33              		.cfi_def_cfa_offset 8
  34              		.cfi_offset 7, -8
  35              		.cfi_offset 14, -4
  36 0002 82B0     		sub	sp, sp, #8
  37              	.LCFI1:
  38              		.cfi_def_cfa_offset 16
  39 0004 00AF     		add	r7, sp, #0
  40              	.LCFI2:
  41              		.cfi_def_cfa_register 7
ARM GAS  C:\Users\adam\AppData\Local\Temp\cczPgtwE.s 			page 2


  17:.\main.c      ****     /* Place your initialization/startup code here (e.g. MyInst_Start()) */
  18:.\main.c      ****     startup_display();
  42              		.loc 1 18 0
  43 0006 FFF7FEFF 		bl	startup_display
  19:.\main.c      ****     startup_music();
  44              		.loc 1 19 0
  45 000a FFF7FEFF 		bl	startup_music
  20:.\main.c      ****    
  21:.\main.c      ****     uint16_t time = 0;
  46              		.loc 1 21 0
  47 000e 4FF00003 		mov	r3, #0
  48 0012 FB80     		strh	r3, [r7, #6]	@ movhi
  49              	.L9:
  22:.\main.c      ****     
  23:.\main.c      ****     /* CyGlobalIntEnable; */ /* Uncomment this line to enable global interrupts. */
  24:.\main.c      ****     for(;;)
  25:.\main.c      ****     {
  26:.\main.c      ****         LCD_Position(0,2);
  50              		.loc 1 26 0
  51 0014 4FF00000 		mov	r0, #0
  52 0018 4FF00201 		mov	r1, #2
  53 001c FFF7FEFF 		bl	LCD_Position
  27:.\main.c      ****         switch(time % 4)
  54              		.loc 1 27 0
  55 0020 FB88     		ldrh	r3, [r7, #6]
  56 0022 03F00303 		and	r3, r3, #3
  57 0026 032B     		cmp	r3, #3
  58 0028 1ED8     		bhi	.L2
  59 002a 01A2     		adr	r2, .L7
  60 002c 52F823F0 		ldr	pc, [r2, r3, lsl #2]
  61              		.align	2
  62              	.L7:
  63 0030 41000000 		.word	.L3+1
  64 0034 4B000000 		.word	.L4+1
  65 0038 55000000 		.word	.L5+1
  66 003c 5F000000 		.word	.L6+1
  67              	.L3:
  28:.\main.c      ****         {
  29:.\main.c      ****             case 0: LCD_PutChar(LCD_CUSTOM_0); break;
  68              		.loc 1 29 0
  69 0040 4FF00000 		mov	r0, #0
  70 0044 FFF7FEFF 		bl	LCD_PutChar
  71 0048 12E0     		b	.L8
  72              	.L4:
  30:.\main.c      ****             case 1: LCD_PutChar(LCD_CUSTOM_1); break;
  73              		.loc 1 30 0
  74 004a 4FF00100 		mov	r0, #1
  75 004e FFF7FEFF 		bl	LCD_PutChar
  76 0052 0DE0     		b	.L8
  77              	.L5:
  31:.\main.c      ****             case 2: LCD_PutChar(LCD_CUSTOM_2); break;
  78              		.loc 1 31 0
  79 0054 4FF00200 		mov	r0, #2
  80 0058 FFF7FEFF 		bl	LCD_PutChar
  81 005c 08E0     		b	.L8
  82              	.L6:
  32:.\main.c      ****             case 3: LCD_PutChar(LCD_CUSTOM_1); break;
ARM GAS  C:\Users\adam\AppData\Local\Temp\cczPgtwE.s 			page 3


  83              		.loc 1 32 0
  84 005e 4FF00100 		mov	r0, #1
  85 0062 FFF7FEFF 		bl	LCD_PutChar
  86 0066 03E0     		b	.L8
  87              	.L2:
  33:.\main.c      ****             default: LCD_PutChar(LCD_CUSTOM_2);
  88              		.loc 1 33 0
  89 0068 4FF00200 		mov	r0, #2
  90 006c FFF7FEFF 		bl	LCD_PutChar
  91              	.L8:
  34:.\main.c      ****         }
  35:.\main.c      ****         //playNote(440, 300);
  36:.\main.c      ****         CyDelay(300);
  92              		.loc 1 36 0
  93 0070 4FF49670 		mov	r0, #300
  94 0074 FFF7FEFF 		bl	CyDelay
  37:.\main.c      ****         time++;
  95              		.loc 1 37 0
  96 0078 FB88     		ldrh	r3, [r7, #6]	@ movhi
  97 007a 03F10103 		add	r3, r3, #1
  98 007e FB80     		strh	r3, [r7, #6]	@ movhi
  38:.\main.c      ****     }
  99              		.loc 1 38 0
 100 0080 C8E7     		b	.L9
 101              		.cfi_endproc
 102              	.LFE56:
 103              		.size	main, .-main
 104 0082 00BF     		.text
 105              	.Letext0:
 106              		.file 2 "c:\\program files\\cypress\\psoc creator\\3.0\\psoc creator\\import\\gnu_cs\\arm\\4.7.3\\
 107              		.file 3 "./Generated_Source/PSoC5/core_cm3.h"