ARM GAS  C:\Users\adam\AppData\Local\Temp\cctd5YWf.s 			page 1


   1              		.syntax unified
   2              		.cpu cortex-m3
   3              		.fpu softvfp
   4              		.eabi_attribute 20, 1
   5              		.eabi_attribute 21, 1
   6              		.eabi_attribute 23, 3
   7              		.eabi_attribute 24, 1
   8              		.eabi_attribute 25, 1
   9              		.eabi_attribute 26, 1
  10              		.eabi_attribute 30, 6
  11              		.eabi_attribute 34, 1
  12              		.eabi_attribute 18, 4
  13              		.thumb
  14              		.file	"power_on.c"
  15              		.text
  16              	.Ltext0:
  17              		.cfi_sections	.debug_frame
  18              		.global	__aeabi_i2d
  19              		.global	__aeabi_ddiv
  20              		.global	__aeabi_dadd
  21              		.global	__aeabi_d2iz
  22              		.global	__aeabi_d2uiz
  23              		.section	.text.playNote,"ax",%progbits
  24              		.align	2
  25              		.global	playNote
  26              		.thumb
  27              		.thumb_func
  28              		.type	playNote, %function
  29              	playNote:
  30              	.LFB56:
  31              		.file 1 ".\\power_on.c"
   1:.\power_on.c  **** /* ========================================
   2:.\power_on.c  ****  *
   3:.\power_on.c  ****  * Copyright YOUR COMPANY, THE YEAR
   4:.\power_on.c  ****  * All Rights Reserved
   5:.\power_on.c  ****  * UNPUBLISHED, LICENSED SOFTWARE.
   6:.\power_on.c  ****  *
   7:.\power_on.c  ****  * CONFIDENTIAL AND PROPRIETARY INFORMATION
   8:.\power_on.c  ****  * WHICH IS THE PROPERTY OF your company.
   9:.\power_on.c  ****  *
  10:.\power_on.c  ****  * ========================================
  11:.\power_on.c  **** */
  12:.\power_on.c  **** 
  13:.\power_on.c  **** #include <project.h>
  14:.\power_on.c  **** #include <power_on.h>
  15:.\power_on.c  **** #include <math.h>
  16:.\power_on.c  **** 
  17:.\power_on.c  **** /*
  18:.\power_on.c  ****  * Plays a note 
  19:.\power_on.c  ****  * @param duration  The duration of the note in ms
  20:.\power_on.c  ****  */
  21:.\power_on.c  **** void playNote(int frequency, int duration) {
  32              		.loc 1 21 0
  33              		.cfi_startproc
  34              		@ args = 0, pretend = 0, frame = 32
  35              		@ frame_needed = 1, uses_anonymous_args = 0
  36 0000 B0B5     		push	{r4, r5, r7, lr}
ARM GAS  C:\Users\adam\AppData\Local\Temp\cctd5YWf.s 			page 2


  37              	.LCFI0:
  38              		.cfi_def_cfa_offset 16
  39              		.cfi_offset 4, -16
  40              		.cfi_offset 5, -12
  41              		.cfi_offset 7, -8
  42              		.cfi_offset 14, -4
  43 0002 88B0     		sub	sp, sp, #32
  44              	.LCFI1:
  45              		.cfi_def_cfa_offset 48
  46 0004 00AF     		add	r7, sp, #0
  47              	.LCFI2:
  48              		.cfi_def_cfa_register 7
  49 0006 7860     		str	r0, [r7, #4]
  50 0008 3960     		str	r1, [r7, #0]
  22:.\power_on.c  ****     
  23:.\power_on.c  ****     double halfPeriod = 1.0 / (2 * frequency);
  51              		.loc 1 23 0
  52 000a 7B68     		ldr	r3, [r7, #4]
  53 000c 4FEA4303 		lsl	r3, r3, #1
  54 0010 1846     		mov	r0, r3
  55 0012 FFF7FEFF 		bl	__aeabi_i2d
  56 0016 0246     		mov	r2, r0
  57 0018 0B46     		mov	r3, r1
  58 001a 4FF00000 		mov	r0, #0
  59 001e 4FF00001 		mov	r1, #0
  60 0022 C3F6F071 		movt	r1, 16368
  61 0026 FFF7FEFF 		bl	__aeabi_ddiv
  62 002a 0246     		mov	r2, r0
  63 002c 0B46     		mov	r3, r1
  64 002e C7E90423 		strd	r2, [r7, #16]
  24:.\power_on.c  ****     int cycles = ceil(( duration / 1000 ) / (halfPeriod * 2));
  65              		.loc 1 24 0
  66 0032 3A68     		ldr	r2, [r7, #0]
  67 0034 44F6D353 		movw	r3, #19923
  68 0038 C1F26203 		movt	r3, 4194
  69 003c 83FB0213 		smull	r1, r3, r3, r2
  70 0040 4FEAA311 		asr	r1, r3, #6
  71 0044 4FEAE273 		asr	r3, r2, #31
  72 0048 CB1A     		subs	r3, r1, r3
  73 004a 1846     		mov	r0, r3
  74 004c FFF7FEFF 		bl	__aeabi_i2d
  75 0050 0446     		mov	r4, r0
  76 0052 0D46     		mov	r5, r1
  77 0054 D7E90423 		ldrd	r2, [r7, #16]
  78 0058 1046     		mov	r0, r2
  79 005a 1946     		mov	r1, r3
  80 005c FFF7FEFF 		bl	__aeabi_dadd
  81 0060 0246     		mov	r2, r0
  82 0062 0B46     		mov	r3, r1
  83 0064 2046     		mov	r0, r4
  84 0066 2946     		mov	r1, r5
  85 0068 FFF7FEFF 		bl	__aeabi_ddiv
  86 006c 0246     		mov	r2, r0
  87 006e 0B46     		mov	r3, r1
  88 0070 1046     		mov	r0, r2
  89 0072 1946     		mov	r1, r3
  90 0074 FFF7FEFF 		bl	ceil
ARM GAS  C:\Users\adam\AppData\Local\Temp\cctd5YWf.s 			page 3


  91 0078 0246     		mov	r2, r0
  92 007a 0B46     		mov	r3, r1
  93 007c 1046     		mov	r0, r2
  94 007e 1946     		mov	r1, r3
  95 0080 FFF7FEFF 		bl	__aeabi_d2iz
  96 0084 0346     		mov	r3, r0
  97 0086 FB60     		str	r3, [r7, #12]
  25:.\power_on.c  ****     
  26:.\power_on.c  ****     int i;
  27:.\power_on.c  ****     for(i = 0; i < cycles; i++){
  98              		.loc 1 27 0
  99 0088 4FF00003 		mov	r3, #0
 100 008c FB61     		str	r3, [r7, #28]
 101 008e 2FE0     		b	.L2
 102              	.L3:
  28:.\power_on.c  ****         CyPins_SetPin( SpeakerPin_0 );
 103              		.loc 1 28 0 discriminator 2
 104 0090 45F26303 		movw	r3, #20579
 105 0094 C4F20003 		movt	r3, 16384
 106 0098 45F26302 		movw	r2, #20579
 107 009c C4F20002 		movt	r2, 16384
 108 00a0 1278     		ldrb	r2, [r2, #0]
 109 00a2 D2B2     		uxtb	r2, r2
 110 00a4 42F00102 		orr	r2, r2, #1
 111 00a8 D2B2     		uxtb	r2, r2
 112 00aa 1A70     		strb	r2, [r3, #0]
  29:.\power_on.c  ****         CyDelay( halfPeriod );
 113              		.loc 1 29 0 discriminator 2
 114 00ac D7E90401 		ldrd	r0, [r7, #16]
 115 00b0 FFF7FEFF 		bl	__aeabi_d2uiz
 116 00b4 0346     		mov	r3, r0
 117 00b6 1846     		mov	r0, r3
 118 00b8 FFF7FEFF 		bl	CyDelay
  30:.\power_on.c  ****         CyPins_ClearPin( SpeakerPin_0 );
 119              		.loc 1 30 0 discriminator 2
 120 00bc 45F26303 		movw	r3, #20579
 121 00c0 C4F20003 		movt	r3, 16384
 122 00c4 45F26302 		movw	r2, #20579
 123 00c8 C4F20002 		movt	r2, 16384
 124 00cc 1278     		ldrb	r2, [r2, #0]
 125 00ce D2B2     		uxtb	r2, r2
 126 00d0 22F00102 		bic	r2, r2, #1
 127 00d4 D2B2     		uxtb	r2, r2
 128 00d6 1A70     		strb	r2, [r3, #0]
  31:.\power_on.c  ****         CyDelay( halfPeriod );
 129              		.loc 1 31 0 discriminator 2
 130 00d8 D7E90401 		ldrd	r0, [r7, #16]
 131 00dc FFF7FEFF 		bl	__aeabi_d2uiz
 132 00e0 0346     		mov	r3, r0
 133 00e2 1846     		mov	r0, r3
 134 00e4 FFF7FEFF 		bl	CyDelay
  27:.\power_on.c  ****     for(i = 0; i < cycles; i++){
 135              		.loc 1 27 0 discriminator 2
 136 00e8 FB69     		ldr	r3, [r7, #28]
 137 00ea 03F10103 		add	r3, r3, #1
 138 00ee FB61     		str	r3, [r7, #28]
 139              	.L2:
ARM GAS  C:\Users\adam\AppData\Local\Temp\cctd5YWf.s 			page 4


  27:.\power_on.c  ****     for(i = 0; i < cycles; i++){
 140              		.loc 1 27 0 is_stmt 0 discriminator 1
 141 00f0 FA69     		ldr	r2, [r7, #28]
 142 00f2 FB68     		ldr	r3, [r7, #12]
 143 00f4 9A42     		cmp	r2, r3
 144 00f6 CBDB     		blt	.L3
  32:.\power_on.c  ****     }
  33:.\power_on.c  **** }
 145              		.loc 1 33 0 is_stmt 1
 146 00f8 07F12007 		add	r7, r7, #32
 147 00fc BD46     		mov	sp, r7
 148 00fe B0BD     		pop	{r4, r5, r7, pc}
 149              		.cfi_endproc
 150              	.LFE56:
 151              		.size	playNote, .-playNote
 152              		.section	.rodata
 153              		.align	2
 154              	.LC0:
 155 0000 B8010000 		.word	440
 156 0004 68010000 		.word	360
 157 0008 B8010000 		.word	440
 158              		.align	2
 159              	.LC1:
 160 000c C8000000 		.word	200
 161 0010 C8000000 		.word	200
 162 0014 C8000000 		.word	200
 163              		.section	.text.startup_music,"ax",%progbits
 164              		.align	2
 165              		.global	startup_music
 166              		.thumb
 167              		.thumb_func
 168              		.type	startup_music, %function
 169              	startup_music:
 170              	.LFB57:
  34:.\power_on.c  **** 
  35:.\power_on.c  **** void startup_music(){
 171              		.loc 1 35 0
 172              		.cfi_startproc
 173              		@ args = 0, pretend = 0, frame = 32
 174              		@ frame_needed = 1, uses_anonymous_args = 0
 175 0000 90B5     		push	{r4, r7, lr}
 176              	.LCFI3:
 177              		.cfi_def_cfa_offset 12
 178              		.cfi_offset 4, -12
 179              		.cfi_offset 7, -8
 180              		.cfi_offset 14, -4
 181 0002 89B0     		sub	sp, sp, #36
 182              	.LCFI4:
 183              		.cfi_def_cfa_offset 48
 184 0004 00AF     		add	r7, sp, #0
 185              	.LCFI5:
 186              		.cfi_def_cfa_register 7
  36:.\power_on.c  ****     
  37:.\power_on.c  ****     int noteFreq[] = { 440 , 360, 440};
 187              		.loc 1 37 0
 188 0006 40F20003 		movw	r3, #:lower16:.LC0
 189 000a C0F20003 		movt	r3, #:upper16:.LC0
ARM GAS  C:\Users\adam\AppData\Local\Temp\cctd5YWf.s 			page 5


 190 000e 07F11004 		add	r4, r7, #16
 191 0012 93E80700 		ldmia	r3, {r0, r1, r2}
 192 0016 84E80700 		stmia	r4, {r0, r1, r2}
  38:.\power_on.c  ****     int noteDur[] = { 200, 200, 200 };
 193              		.loc 1 38 0
 194 001a 40F20003 		movw	r3, #:lower16:.LC1
 195 001e C0F20003 		movt	r3, #:upper16:.LC1
 196 0022 07F10404 		add	r4, r7, #4
 197 0026 93E80700 		ldmia	r3, {r0, r1, r2}
 198 002a 84E80700 		stmia	r4, {r0, r1, r2}
  39:.\power_on.c  ****     
  40:.\power_on.c  ****     int i;
  41:.\power_on.c  ****     for(i = 0; i < 3; i++){
 199              		.loc 1 41 0
 200 002e 4FF00003 		mov	r3, #0
 201 0032 FB61     		str	r3, [r7, #28]
 202 0034 17E0     		b	.L5
 203              	.L6:
  42:.\power_on.c  ****         playNote(noteFreq[i], noteDur[i]);
 204              		.loc 1 42 0 discriminator 2
 205 0036 FB69     		ldr	r3, [r7, #28]
 206 0038 4FEA8303 		lsl	r3, r3, #2
 207 003c 07F12001 		add	r1, r7, #32
 208 0040 CB18     		adds	r3, r1, r3
 209 0042 53F8102C 		ldr	r2, [r3, #-16]
 210 0046 FB69     		ldr	r3, [r7, #28]
 211 0048 4FEA8303 		lsl	r3, r3, #2
 212 004c 07F12001 		add	r1, r7, #32
 213 0050 CB18     		adds	r3, r1, r3
 214 0052 53F81C3C 		ldr	r3, [r3, #-28]
 215 0056 1046     		mov	r0, r2
 216 0058 1946     		mov	r1, r3
 217 005a FFF7FEFF 		bl	playNote
  41:.\power_on.c  ****     for(i = 0; i < 3; i++){
 218              		.loc 1 41 0 discriminator 2
 219 005e FB69     		ldr	r3, [r7, #28]
 220 0060 03F10103 		add	r3, r3, #1
 221 0064 FB61     		str	r3, [r7, #28]
 222              	.L5:
  41:.\power_on.c  ****     for(i = 0; i < 3; i++){
 223              		.loc 1 41 0 is_stmt 0 discriminator 1
 224 0066 FB69     		ldr	r3, [r7, #28]
 225 0068 022B     		cmp	r3, #2
 226 006a E4DD     		ble	.L6
  43:.\power_on.c  ****     }
  44:.\power_on.c  **** }
 227              		.loc 1 44 0 is_stmt 1
 228 006c 07F12407 		add	r7, r7, #36
 229 0070 BD46     		mov	sp, r7
 230 0072 90BD     		pop	{r4, r7, pc}
 231              		.cfi_endproc
 232              	.LFE57:
 233              		.size	startup_music, .-startup_music
 234              		.text
 235              	.Letext0:
 236              		.file 2 "c:\\program files\\cypress\\psoc creator\\3.0\\psoc creator\\import\\gnu_cs\\arm\\4.7.3\\
 237              		.file 3 "./Generated_Source/PSoC5/cytypes.h"
ARM GAS  C:\Users\adam\AppData\Local\Temp\cctd5YWf.s 			page 6


 238              		.file 4 "./Generated_Source/PSoC5/core_cm3.h"