ARM GAS  C:\Users\meeka\AppData\Local\Temp\ccKb6b0M.s 			page 1


   1              		.syntax unified
   2              		.cpu cortex-m3
   3              		.fpu softvfp
   4              		.eabi_attribute 20, 1
   5              		.eabi_attribute 21, 1
   6              		.eabi_attribute 23, 3
   7              		.eabi_attribute 24, 1
   8              		.eabi_attribute 25, 1
   9              		.eabi_attribute 26, 1
  10              		.eabi_attribute 30, 6
  11              		.eabi_attribute 34, 1
  12              		.eabi_attribute 18, 4
  13              		.thumb
  14              		.file	"main.c"
  15              		.text
  16              	.Ltext0:
  17              		.cfi_sections	.debug_frame
  18              		.section	.rodata
  19              		.align	2
  20              	.LC0:
  21 0000 48656C6C 		.ascii	"Hello, world!\000"
  21      6F2C2077 
  21      6F726C64 
  21      2100
  22 000e 0000     		.section	.text.main,"ax",%progbits
  23              		.align	2
  24              		.global	main
  25              		.thumb
  26              		.thumb_func
  27              		.type	main, %function
  28              	main:
  29              	.LFB56:
  30              		.file 1 ".\\main.c"
   1:.\main.c      **** /* ========================================
   2:.\main.c      ****  *
   3:.\main.c      ****  * Copyright YOUR COMPANY, THE YEAR
   4:.\main.c      ****  * All Rights Reserved
   5:.\main.c      ****  * UNPUBLISHED, LICENSED SOFTWARE.
   6:.\main.c      ****  *
   7:.\main.c      ****  * CONFIDENTIAL AND PROPRIETARY INFORMATION
   8:.\main.c      ****  * WHICH IS THE PROPERTY OF your company.
   9:.\main.c      ****  *
  10:.\main.c      ****  * ========================================
  11:.\main.c      **** */
  12:.\main.c      **** #include <project.h>
  13:.\main.c      **** 
  14:.\main.c      **** int main()
  15:.\main.c      **** {
  31              		.loc 1 15 0
  32              		.cfi_startproc
  33              		@ args = 0, pretend = 0, frame = 8
  34              		@ frame_needed = 1, uses_anonymous_args = 0
  35 0000 80B5     		push	{r7, lr}
  36              	.LCFI0:
  37              		.cfi_def_cfa_offset 8
  38              		.cfi_offset 7, -8
  39              		.cfi_offset 14, -4
ARM GAS  C:\Users\meeka\AppData\Local\Temp\ccKb6b0M.s 			page 2


  40 0002 82B0     		sub	sp, sp, #8
  41              	.LCFI1:
  42              		.cfi_def_cfa_offset 16
  43 0004 00AF     		add	r7, sp, #0
  44              	.LCFI2:
  45              		.cfi_def_cfa_register 7
  16:.\main.c      ****     /* Place your initialization/startup code here (e.g. MyInst_Start()) */
  17:.\main.c      ****     LCD_Init();
  46              		.loc 1 17 0
  47 0006 FFF7FEFF 		bl	LCD_Init
  18:.\main.c      ****     LCD_Position(0,2);
  48              		.loc 1 18 0
  49 000a 4FF00000 		mov	r0, #0
  50 000e 4FF00201 		mov	r1, #2
  51 0012 FFF7FEFF 		bl	LCD_Position
  19:.\main.c      ****     LCD_PrintString("Hello, world!");
  52              		.loc 1 19 0
  53 0016 40F20000 		movw	r0, #:lower16:.LC0
  54 001a C0F20000 		movt	r0, #:upper16:.LC0
  55 001e FFF7FEFF 		bl	LCD_PrintString
  20:.\main.c      ****    
  21:.\main.c      ****     uint16_t time = 0;
  56              		.loc 1 21 0
  57 0022 4FF00003 		mov	r3, #0
  58 0026 FB80     		strh	r3, [r7, #6]	@ movhi
  59              	.L9:
  22:.\main.c      ****     
  23:.\main.c      ****     /* CyGlobalIntEnable; */ /* Uncomment this line to enable global interrupts. */
  24:.\main.c      ****     for(;;)
  25:.\main.c      ****     {
  26:.\main.c      ****         LCD_Position(0,2);
  60              		.loc 1 26 0
  61 0028 4FF00000 		mov	r0, #0
  62 002c 4FF00201 		mov	r1, #2
  63 0030 FFF7FEFF 		bl	LCD_Position
  27:.\main.c      ****         switch(time % 4)
  64              		.loc 1 27 0
  65 0034 FB88     		ldrh	r3, [r7, #6]
  66 0036 03F00303 		and	r3, r3, #3
  67 003a 032B     		cmp	r3, #3
  68 003c 1ED8     		bhi	.L2
  69 003e 01A2     		adr	r2, .L7
  70 0040 52F823F0 		ldr	pc, [r2, r3, lsl #2]
  71              		.align	2
  72              	.L7:
  73 0044 55000000 		.word	.L3+1
  74 0048 5F000000 		.word	.L4+1
  75 004c 69000000 		.word	.L5+1
  76 0050 73000000 		.word	.L6+1
  77              	.L3:
  28:.\main.c      ****         {
  29:.\main.c      ****             case 0: LCD_PutChar(LCD_CUSTOM_0); break;
  78              		.loc 1 29 0
  79 0054 4FF00000 		mov	r0, #0
  80 0058 FFF7FEFF 		bl	LCD_PutChar
  81 005c 12E0     		b	.L8
  82              	.L4:
ARM GAS  C:\Users\meeka\AppData\Local\Temp\ccKb6b0M.s 			page 3


  30:.\main.c      ****             case 1: LCD_PutChar(LCD_CUSTOM_1); break;
  83              		.loc 1 30 0
  84 005e 4FF00100 		mov	r0, #1
  85 0062 FFF7FEFF 		bl	LCD_PutChar
  86 0066 0DE0     		b	.L8
  87              	.L5:
  31:.\main.c      ****             case 2: LCD_PutChar(LCD_CUSTOM_2); break;
  88              		.loc 1 31 0
  89 0068 4FF00200 		mov	r0, #2
  90 006c FFF7FEFF 		bl	LCD_PutChar
  91 0070 08E0     		b	.L8
  92              	.L6:
  32:.\main.c      ****             case 3: LCD_PutChar(LCD_CUSTOM_1); break;
  93              		.loc 1 32 0
  94 0072 4FF00100 		mov	r0, #1
  95 0076 FFF7FEFF 		bl	LCD_PutChar
  96 007a 03E0     		b	.L8
  97              	.L2:
  33:.\main.c      ****             default: LCD_PutChar(LCD_CUSTOM_2);
  98              		.loc 1 33 0
  99 007c 4FF00200 		mov	r0, #2
 100 0080 FFF7FEFF 		bl	LCD_PutChar
 101              	.L8:
  34:.\main.c      ****         }
  35:.\main.c      ****         CyDelay(300);
 102              		.loc 1 35 0
 103 0084 4FF49670 		mov	r0, #300
 104 0088 FFF7FEFF 		bl	CyDelay
  36:.\main.c      ****     }
 105              		.loc 1 36 0
 106 008c CCE7     		b	.L9
 107              		.cfi_endproc
 108              	.LFE56:
 109              		.size	main, .-main
 110 008e 00BF     		.text
 111              	.Letext0:
 112              		.file 2 "c:\\program files (x86)\\cypress\\psoc creator\\3.0\\psoc creator\\import\\gnu_cs\\arm\\4
 113              		.file 3 "./Generated_Source/PSoC5/core_cm3.h"